; Function Attrs: mustprogress nounwind uwtable
define noundef nonnull align 8 dereferenceable(744) ptr @_ZNK8proxygen21RequestHandlerAdaptor21getSetupTransportInfoEv(ptr nocapture noundef nonnull readonly align 8 dereferenceable(36) %this) unnamed_addr #4 align 2 {
entry:
  %txn_ = getelementptr inbounds i8, ptr %this, i64 24
  %0 = load ptr, ptr %txn_, align 8
  %transport_.i = getelementptr inbounds i8, ptr %0, i64 272
  %1 = load ptr, ptr %transport_.i, align 8
  %vtable.i = load ptr, ptr %1, align 8
  %vfn.i = getelementptr inbounds i8, ptr %vtable.i, i64 192
  %2 = load ptr, ptr %vfn.i, align 8
  %call.i = tail call noundef nonnull align 8 dereferenceable(744) ptr %2(ptr noundef nonnull align 8 dereferenceable(8) %1) #19
  ret ptr %call.i
}